; Function Attrs: nofree norecurse nosync nounwind memory(read, inaccessiblemem: none) uwtable
define i32 @Gia_Gen2CodeOne(i32 noundef %0, i32 noundef %1, ptr noundef readonly captures(none) %2, i32 noundef %3) local_unnamed_addr #6 {
  %5 = icmp sgt i32 %1, 0
  br i1 %5, label %.lr.ph, label %._crit_edge

.lr.ph:                                           ; preds = %4
  %6 = getelementptr i8, ptr %2, i64 8
  %.val = load ptr, ptr %6, align 8, !tbaa !10
  br label %7

7:                                                ; preds = %.lr.ph, %7
  %.011 = phi i32 [ 0, %.lr.ph ], [ %.1, %7 ]
  %.0910 = phi i32 [ 0, %.lr.ph ], [ %15, %7 ]
  %8 = shl i32 %.0910, %0
  %9 = add nsw i32 %8, %3
  %10 = sext i32 %9 to i64
  %11 = getelementptr inbounds i32, ptr %.val, i64 %10
  %12 = load i32, ptr %11, align 4, !tbaa !12
  %.not = icmp eq i32 %12, 0
  %13 = shl nuw i32 1, %.0910
  %14 = select i1 %.not, i32 0, i32 %13
  %.1 = or i32 %14, %.011
  %15 = add nuw nsw i32 %.0910, 1
  %exitcond.not = icmp eq i32 %15, %1
  br i1 %exitcond.not, label %._crit_edge, label %7, !llvm.loop !61

._crit_edge:                                      ; preds = %7, %4
  %.0.lcssa = phi i32 [ 0, %4 ], [ %.1, %7 ]
  ret i32 %.0.lcssa
}